target datalayout = "e-m:e-p270:32:32-p271:32:32-p272:64:64-i64:64-i128:128-f80:128-n8:16:32:64-S128"
target triple = "x86_64-pc-linux-gnu"

@.str.121 = private unnamed_addr constant [3 x i8] c"%c\00", align 1

; Function Attrs: mustprogress nounwind uwtable
define linkonce_odr dso_local noundef nonnull align 4 dereferenceable(4) ptr @_ZSt3maxIiERKT_S2_S2_(ptr noundef nonnull align 4 dereferenceable(4) %0, ptr noundef nonnull align 4 dereferenceable(4) %1) #11 comdat {
  %3 = alloca ptr, align 8
  %4 = alloca ptr, align 8
  %5 = alloca ptr, align 8
  store ptr %0, ptr %4, align 8
  store ptr %1, ptr %5, align 8
  %6 = load ptr, ptr %4, align 8
  %7 = load i32, ptr %6, align 4
  %8 = load ptr, ptr %5, align 8
  %9 = load i32, ptr %8, align 4
  %10 = icmp slt i32 %7, %9
  br i1 %10, label %11, label %13

11:                                               ; preds = %2
  %12 = load ptr, ptr %5, align 8
  store ptr %12, ptr %3, align 8
  br label %15

13:                                               ; preds = %2
  %14 = load ptr, ptr %4, align 8
  store ptr %14, ptr %3, align 8
  br label %15

15:                                               ; preds = %13, %11
  %16 = load ptr, ptr %3, align 8
  ret ptr %16
}

; Function Attrs: mustprogress uwtable
define internal noundef i32 @_ZN12_GLOBAL__N_19NinjaMain9ToolUrtleEPKNS_7OptionsEiPPc(ptr noundef nonnull align 8 dereferenceable(536) %0, ptr noundef %1, i32 noundef %2, ptr noundef %3) #2 align 2 {
  %5 = alloca ptr, align 8
  %6 = alloca ptr, align 8
  %7 = alloca i32, align 4
  %8 = alloca ptr, align 8
  %9 = alloca ptr, align 8
  %10 = alloca i32, align 4
  %11 = alloca ptr, align 8
  %12 = alloca i32, align 4
  %13 = alloca i32, align 4
  store ptr %0, ptr %5, align 8
  store ptr %1, ptr %6, align 8
  store i32 %2, ptr %7, align 4
  store ptr %3, ptr %8, align 8
  store ptr @.str.120, ptr %9, align 8
  store i32 0, ptr %10, align 4
  %14 = load ptr, ptr %9, align 8
  store ptr %14, ptr %11, align 8
  br label %15

15:                                               ; preds = %53, %4
  %16 = load ptr, ptr %11, align 8
  %17 = load i8, ptr %16, align 1
  %18 = icmp ne i8 %17, 0
  br i1 %18, label %19, label %56

19:                                               ; preds = %15
  %20 = load ptr, ptr %11, align 8
  %21 = load i8, ptr %20, align 1
  %22 = sext i8 %21 to i32
  %23 = icmp sle i32 48, %22
  br i1 %23, label %24, label %37

24:                                               ; preds = %19
  %25 = load ptr, ptr %11, align 8
  %26 = load i8, ptr %25, align 1
  %27 = sext i8 %26 to i32
  %28 = icmp sle i32 %27, 57
  br i1 %28, label %29, label %37

29:                                               ; preds = %24
  %30 = load i32, ptr %10, align 4
  %31 = mul nsw i32 %30, 10
  %32 = load ptr, ptr %11, align 8
  %33 = load i8, ptr %32, align 1
  %34 = sext i8 %33 to i32
  %35 = add nsw i32 %31, %34
  %36 = sub nsw i32 %35, 48
  store i32 %36, ptr %10, align 4
  br label %52

37:                                               ; preds = %24, %19
  store i32 0, ptr %12, align 4
  br label %38

38:                                               ; preds = %48, %37
  %39 = load i32, ptr %12, align 4
  store i32 1, ptr %13, align 4
  %40 = call noundef nonnull align 4 dereferenceable(4) ptr @_ZSt3maxIiERKT_S2_S2_(ptr noundef nonnull align 4 dereferenceable(4) %10, ptr noundef nonnull align 4 dereferenceable(4) %13)
  %41 = load i32, ptr %40, align 4
  %42 = icmp slt i32 %39, %41
  br i1 %42, label %43, label %51

43:                                               ; preds = %38
  %44 = load ptr, ptr %11, align 8
  %45 = load i8, ptr %44, align 1
  %46 = sext i8 %45 to i32
  %47 = call i32 (ptr, ...) @printf(ptr noundef @.str.121, i32 noundef %46)
  br label %48

48:                                               ; preds = %43
  %49 = load i32, ptr %12, align 4
  %50 = add nsw i32 %49, 1
  store i32 %50, ptr %12, align 4
  br label %38, !llvm.loop !36

51:                                               ; preds = %38
  store i32 0, ptr %10, align 4
  br label %52

52:                                               ; preds = %51, %29
  br label %53

53:                                               ; preds = %52
  %54 = load ptr, ptr %11, align 8
  %55 = getelementptr inbounds i8, ptr %54, i32 1
  store ptr %55, ptr %11, align 8
  br label %15, !llvm.loop !37

56:                                               ; preds = %15
  ret i32 0
}