; Function Attrs: mustprogress nofree nounwind uwtable
define internal noundef i32 @_ZN12_GLOBAL__N_19NinjaMain9ToolUrtleEPKNS_7OptionsEiPPc(ptr nocapture nonnull readnone align 8 %0, ptr nocapture readnone %1, i32 %2, ptr nocapture readnone %3) #15 align 2 {
  br label %5

5:                                                ; preds = %4, %.loopexit
  %6 = phi i8 [ 32, %4 ], [ %16, %.loopexit ]
  %.0818 = phi ptr [ @.str.120, %4 ], [ %15, %.loopexit ]
  %.01517 = phi i32 [ 0, %4 ], [ %storemerge, %.loopexit ]
  %7 = sext i8 %6 to i32
  %8 = add i8 %6, -48
  %or.cond = icmp ult i8 %8, 10
  br i1 %or.cond, label %9, label %.preheader

.preheader:                                       ; preds = %5
  %smax = tail call i32 @llvm.smax.i32(i32 %.01517, i32 1)
  br label %13

9:                                                ; preds = %5
  %10 = mul nsw i32 %.01517, 10
  %11 = add i32 %10, -48
  %12 = add i32 %11, %7
  br label %.loopexit

13:                                               ; preds = %.preheader, %13
  %.016 = phi i32 [ 0, %.preheader ], [ %14, %13 ]
  %putchar = tail call i32 @putchar(i32 %7)
  %14 = add nuw nsw i32 %.016, 1
  %exitcond.not = icmp eq i32 %14, %smax
  br i1 %exitcond.not, label %.loopexit, label %13, !llvm.loop !48

.loopexit:                                        ; preds = %13, %9
  %storemerge = phi i32 [ %12, %9 ], [ 0, %13 ]
  %15 = getelementptr inbounds i8, ptr %.0818, i64 1
  %16 = load i8, ptr %15, align 1
  %.not = icmp eq i8 %16, 0
  br i1 %.not, label %17, label %5, !llvm.loop !49

17:                                               ; preds = %.loopexit
  ret i32 0
}